target datalayout = "e-m:e-p270:32:32-p271:32:32-p272:64:64-i64:64-i128:128-f80:128-n8:16:32:64-S128"
target triple = "x86_64-pc-linux-gnu"

%struct._zend_refcounted_h = type { i32, %union.anon }
%union.anon = type { i32 }
%struct._zend_string = type { %struct._zend_refcounted_h, i64, i64, [1 x i8] }
%struct.stat = type { i64, i64, i64, i32, i32, i32, i32, i64, i64, i64, i64, %struct.timespec, %struct.timespec, %struct.timespec, [3 x i64] }
%struct.timespec = type { i64, i64 }

@.str.175 = private unnamed_addr constant [65 x i8] c"opcache.file_cache must be a full path of accessible directory.\0A\00", align 1

; Function Attrs: nounwind uwtable
define internal i32 @OnUpdateFileCache(ptr noundef %0, ptr noundef %1, ptr noundef %2, ptr noundef %3, ptr noundef %4, i32 noundef %5) #0 {
  %7 = alloca ptr, align 8
  %8 = alloca ptr, align 8
  %9 = alloca ptr, align 8
  %10 = alloca ptr, align 8
  %11 = alloca ptr, align 8
  %12 = alloca i32, align 4
  %13 = alloca %struct.stat, align 8
  store ptr %0, ptr %7, align 8
  store ptr %1, ptr %8, align 8
  store ptr %2, ptr %9, align 8
  store ptr %3, ptr %10, align 8
  store ptr %4, ptr %11, align 8
  store i32 %5, ptr %12, align 4
  %14 = load ptr, ptr %8, align 8
  %15 = icmp ne ptr %14, null
  br i1 %15, label %16, label %49

16:                                               ; preds = %6
  %17 = load ptr, ptr %8, align 8
  %18 = getelementptr inbounds %struct._zend_string, ptr %17, i32 0, i32 2
  %19 = load i64, ptr %18, align 8
  %20 = icmp ne i64 %19, 0
  br i1 %20, label %22, label %21

21:                                               ; preds = %16
  store ptr null, ptr %8, align 8
  br label %48

22:                                               ; preds = %16
  call void @llvm.memset.p0.i64(ptr align 8 %13, i8 0, i64 144, i1 false)
  %23 = load ptr, ptr %8, align 8
  %24 = getelementptr inbounds %struct._zend_string, ptr %23, i32 0, i32 3
  %25 = getelementptr inbounds [1 x i8], ptr %24, i64 0, i64 0
  %26 = load i8, ptr %25, align 8
  %27 = sext i8 %26 to i32
  %28 = icmp eq i32 %27, 47
  br i1 %28, label %29, label %46

29:                                               ; preds = %22
  %30 = load ptr, ptr %8, align 8
  %31 = getelementptr inbounds %struct._zend_string, ptr %30, i32 0, i32 3
  %32 = getelementptr inbounds [1 x i8], ptr %31, i64 0, i64 0
  %33 = call i32 @stat(ptr noundef %32, ptr noundef %13) #10
  %34 = icmp ne i32 %33, 0
  br i1 %34, label %46, label %35

35:                                               ; preds = %29
  %36 = getelementptr inbounds %struct.stat, ptr %13, i32 0, i32 3
  %37 = load i32, ptr %36, align 8
  %38 = and i32 %37, 61440
  %39 = icmp eq i32 %38, 16384
  br i1 %39, label %40, label %46

40:                                               ; preds = %35
  %41 = load ptr, ptr %8, align 8
  %42 = getelementptr inbounds %struct._zend_string, ptr %41, i32 0, i32 3
  %43 = getelementptr inbounds [1 x i8], ptr %42, i64 0, i64 0
  %44 = call i32 @access(ptr noundef %43, i32 noundef 7) #10
  %45 = icmp ne i32 %44, 0
  br i1 %45, label %46, label %47

46:                                               ; preds = %40, %35, %29, %22
  call void (i32, ptr, ...) @zend_accel_error(i32 noundef 2, ptr noundef @.str.175)
  store ptr null, ptr %8, align 8
  br label %47

47:                                               ; preds = %46, %40
  br label %48

48:                                               ; preds = %47, %21
  br label %49

49:                                               ; preds = %48, %6
  %50 = load ptr, ptr %7, align 8
  %51 = load ptr, ptr %8, align 8
  %52 = load ptr, ptr %9, align 8
  %53 = load ptr, ptr %10, align 8
  %54 = load ptr, ptr %11, align 8
  %55 = load i32, ptr %12, align 4
  %56 = call i32 @OnUpdateString(ptr noundef %50, ptr noundef %51, ptr noundef %52, ptr noundef %53, ptr noundef %54, i32 noundef %55)
  ret i32 0
}