; Function Attrs: nounwind uwtable
define internal noundef i32 @OnUpdateFileCache(ptr noundef %0, ptr noundef %1, ptr noundef %2, ptr noundef %3, ptr noundef %4, i32 noundef %5) #0 {
  %7 = alloca %struct.stat, align 8
  %.not = icmp eq ptr %1, null
  br i1 %.not, label %25, label %8

8:                                                ; preds = %6
  %9 = getelementptr inbounds i8, ptr %1, i64 16
  %10 = load i64, ptr %9, align 8
  %.not11 = icmp eq i64 %10, 0
  br i1 %.not11, label %25, label %11

11:                                               ; preds = %8
  call void @llvm.memset.p0.i64(ptr noundef nonnull align 8 dereferenceable(144) %7, i8 0, i64 144, i1 false)
  %12 = getelementptr inbounds i8, ptr %1, i64 24
  %13 = load i8, ptr %12, align 8
  %14 = icmp eq i8 %13, 47
  br i1 %14, label %15, label %24

15:                                               ; preds = %11
  %16 = call i32 @stat(ptr noundef nonnull %12, ptr noundef nonnull %7) #14
  %.not12 = icmp eq i32 %16, 0
  br i1 %.not12, label %17, label %24

17:                                               ; preds = %15
  %18 = getelementptr inbounds i8, ptr %7, i64 24
  %19 = load i32, ptr %18, align 8
  %20 = and i32 %19, 61440
  %21 = icmp eq i32 %20, 16384
  br i1 %21, label %22, label %24

22:                                               ; preds = %17
  %23 = tail call i32 @access(ptr noundef nonnull %12, i32 noundef 7) #14
  %.not13 = icmp eq i32 %23, 0
  br i1 %.not13, label %25, label %24

24:                                               ; preds = %22, %17, %15, %11
  tail call void (i32, ptr, ...) @zend_accel_error(i32 noundef 2, ptr noundef nonnull @.str.175) #14
  br label %25

25:                                               ; preds = %8, %24, %22, %6
  %.0 = phi ptr [ null, %24 ], [ %1, %22 ], [ null, %6 ], [ null, %8 ]
  %26 = tail call i32 @OnUpdateString(ptr noundef %0, ptr noundef %.0, ptr noundef %2, ptr noundef %3, ptr noundef %4, i32 noundef %5) #14
  ret i32 0
}